target datalayout = "e-m:e-p270:32:32-p271:32:32-p272:64:64-i64:64-i128:128-f80:128-n8:16:32:64-S128"
target triple = "x86_64-pc-linux-gnu"

; Function Attrs: nounwind uwtable
define zeroext i1 @duckdb_je_multi_setting_parse_next(ptr noundef %0, ptr noundef %1, ptr noundef %2, ptr noundef %3, ptr noundef %4) #0 {
  %6 = alloca i1, align 1
  %7 = alloca ptr, align 8
  %8 = alloca ptr, align 8
  %9 = alloca ptr, align 8
  %10 = alloca ptr, align 8
  %11 = alloca ptr, align 8
  %12 = alloca ptr, align 8
  %13 = alloca ptr, align 8
  %14 = alloca i64, align 8
  %15 = alloca i32, align 4
  store ptr %0, ptr %7, align 8, !tbaa !3
  store ptr %1, ptr %8, align 8, !tbaa !8
  store ptr %2, ptr %9, align 8, !tbaa !8
  store ptr %3, ptr %10, align 8, !tbaa !8
  store ptr %4, ptr %11, align 8, !tbaa !8
  call void @llvm.lifetime.start.p0(i64 8, ptr %12) #5
  %16 = load ptr, ptr %7, align 8, !tbaa !3
  %17 = load ptr, ptr %16, align 8, !tbaa !10
  store ptr %17, ptr %12, align 8, !tbaa !10
  call void @llvm.lifetime.start.p0(i64 8, ptr %13) #5
  call void @llvm.lifetime.start.p0(i64 8, ptr %14) #5
  call void @set_errno(i32 noundef 0)
  %18 = load ptr, ptr %12, align 8, !tbaa !10
  %19 = call i64 @duckdb_je_malloc_strtoumax(ptr noundef %18, ptr noundef %13, i32 noundef 0)
  store i64 %19, ptr %14, align 8, !tbaa !12
  %20 = call i32 @get_errno()
  %21 = icmp ne i32 %20, 0
  br i1 %21, label %27, label %22

22:                                               ; preds = %5
  %23 = load ptr, ptr %13, align 8, !tbaa !10
  %24 = load i8, ptr %23, align 1, !tbaa !14
  %25 = sext i8 %24 to i32
  %26 = icmp ne i32 %25, 45
  br i1 %26, label %27, label %28

27:                                               ; preds = %22, %5
  store i1 true, ptr %6, align 1
  store i32 1, ptr %15, align 4
  br label %75

28:                                               ; preds = %22
  %29 = load i64, ptr %14, align 8, !tbaa !12
  %30 = load ptr, ptr %9, align 8, !tbaa !8
  store i64 %29, ptr %30, align 8, !tbaa !12
  %31 = load ptr, ptr %13, align 8, !tbaa !10
  %32 = getelementptr inbounds i8, ptr %31, i64 1
  store ptr %32, ptr %12, align 8, !tbaa !10
  %33 = load ptr, ptr %12, align 8, !tbaa !10
  %34 = call i64 @duckdb_je_malloc_strtoumax(ptr noundef %33, ptr noundef %13, i32 noundef 0)
  store i64 %34, ptr %14, align 8, !tbaa !12
  %35 = call i32 @get_errno()
  %36 = icmp ne i32 %35, 0
  br i1 %36, label %42, label %37

37:                                               ; preds = %28
  %38 = load ptr, ptr %13, align 8, !tbaa !10
  %39 = load i8, ptr %38, align 1, !tbaa !14
  %40 = sext i8 %39 to i32
  %41 = icmp ne i32 %40, 58
  br i1 %41, label %42, label %43

42:                                               ; preds = %37, %28
  store i1 true, ptr %6, align 1
  store i32 1, ptr %15, align 4
  br label %75

43:                                               ; preds = %37
  %44 = load i64, ptr %14, align 8, !tbaa !12
  %45 = load ptr, ptr %10, align 8, !tbaa !8
  store i64 %44, ptr %45, align 8, !tbaa !12
  %46 = load ptr, ptr %13, align 8, !tbaa !10
  %47 = getelementptr inbounds i8, ptr %46, i64 1
  store ptr %47, ptr %12, align 8, !tbaa !10
  %48 = load ptr, ptr %12, align 8, !tbaa !10
  %49 = call i64 @duckdb_je_malloc_strtoumax(ptr noundef %48, ptr noundef %13, i32 noundef 0)
  store i64 %49, ptr %14, align 8, !tbaa !12
  %50 = call i32 @get_errno()
  %51 = icmp ne i32 %50, 0
  br i1 %51, label %52, label %53

52:                                               ; preds = %43
  store i1 true, ptr %6, align 1
  store i32 1, ptr %15, align 4
  br label %75

53:                                               ; preds = %43
  %54 = load i64, ptr %14, align 8, !tbaa !12
  %55 = load ptr, ptr %11, align 8, !tbaa !8
  store i64 %54, ptr %55, align 8, !tbaa !12
  %56 = load ptr, ptr %13, align 8, !tbaa !10
  %57 = load i8, ptr %56, align 1, !tbaa !14
  %58 = sext i8 %57 to i32
  %59 = icmp eq i32 %58, 124
  br i1 %59, label %60, label %63

60:                                               ; preds = %53
  %61 = load ptr, ptr %13, align 8, !tbaa !10
  %62 = getelementptr inbounds nuw i8, ptr %61, i32 1
  store ptr %62, ptr %13, align 8, !tbaa !10
  br label %63

63:                                               ; preds = %60, %53
  %64 = load ptr, ptr %13, align 8, !tbaa !10
  %65 = load ptr, ptr %7, align 8, !tbaa !3
  %66 = load ptr, ptr %65, align 8, !tbaa !10
  %67 = ptrtoint ptr %64 to i64
  %68 = ptrtoint ptr %66 to i64
  %69 = sub i64 %67, %68
  %70 = load ptr, ptr %8, align 8, !tbaa !8
  %71 = load i64, ptr %70, align 8, !tbaa !12
  %72 = sub i64 %71, %69
  store i64 %72, ptr %70, align 8, !tbaa !12
  %73 = load ptr, ptr %13, align 8, !tbaa !10
  %74 = load ptr, ptr %7, align 8, !tbaa !3
  store ptr %73, ptr %74, align 8, !tbaa !10
  store i1 false, ptr %6, align 1
  store i32 1, ptr %15, align 4
  br label %75

75:                                               ; preds = %63, %52, %42, %27
  call void @llvm.lifetime.end.p0(i64 8, ptr %14) #5
  call void @llvm.lifetime.end.p0(i64 8, ptr %13) #5
  call void @llvm.lifetime.end.p0(i64 8, ptr %12) #5
  %76 = load i1, ptr %6, align 1
  ret i1 %76
}

; Function Attrs: nocallback nofree nosync nounwind willreturn memory(argmem: readwrite)
declare void @llvm.lifetime.start.p0(i64 immarg, ptr captures(none)) #1

; Function Attrs: inlinehint nounwind uwtable
define internal void @set_errno(i32 noundef %0) #2 {
  %2 = alloca i32, align 4
  store i32 %0, ptr %2, align 4, !tbaa !15
  %3 = load i32, ptr %2, align 4, !tbaa !15
  %4 = call ptr @__errno_location() #6
  store i32 %3, ptr %4, align 4, !tbaa !15
  ret void
}

declare i64 @duckdb_je_malloc_strtoumax(ptr noundef, ptr noundef, i32 noundef) #3

; Function Attrs: inlinehint nounwind uwtable
define internal i32 @get_errno() #2 {
  %1 = call ptr @__errno_location() #6
  %2 = load i32, ptr %1, align 4, !tbaa !15
  ret i32 %2
}

; Function Attrs: nocallback nofree nosync nounwind willreturn memory(argmem: readwrite)
declare void @llvm.lifetime.end.p0(i64 immarg, ptr captures(none)) #1

; Function Attrs: nounwind willreturn memory(none)
declare ptr @__errno_location() #4


!llvm.module.flags = !{!0, !1, !2}

!0 = !{i32 1, !"wchar_size", i32 4}
!1 = !{i32 8, !"PIC Level", i32 2}
!2 = !{i32 7, !"uwtable", i32 2}
!3 = !{!4, !4, i64 0}
!4 = !{!"p2 omnipotent char", !5, i64 0}
!5 = !{!"any pointer", !6, i64 0}
!6 = !{!"omnipotent char", !7, i64 0}
!7 = !{!"Simple C/C++ TBAA"}
!8 = !{!9, !9, i64 0}
!9 = !{!"p1 long", !5, i64 0}
!10 = !{!11, !11, i64 0}
!11 = !{!"p1 omnipotent char", !5, i64 0}
!12 = !{!13, !13, i64 0}
!13 = !{!"long", !6, i64 0}
!14 = !{!6, !6, i64 0}
!15 = !{!16, !16, i64 0}
!16 = !{!"int", !6, i64 0}
